target datalayout = "e-m:e-p270:32:32-p271:32:32-p272:64:64-i64:64-i128:128-f80:128-n8:16:32:64-S128"
target triple = "x86_64-pc-linux-gnu"

%struct.LZ4F_preferences_t = type { %struct.LZ4F_frameInfo_t, i32, i32, i32, [3 x i32] }
%struct.LZ4F_frameInfo_t = type { i32, i32, i32, i32, i64, i32, i32 }
%struct.cRess_t = type { ptr, i64, ptr, i64, ptr, %struct.LZ4F_preferences_t, ptr, ptr, ptr }

@g_displayLevel = internal global i32 0, align 4
@stderr = external global ptr, align 8
@.str = private unnamed_addr constant [12 x i8] c"Error %i : \00", align 1
@.str.2 = private unnamed_addr constant [3 x i8] c" \0A\00", align 1
@.str.82 = private unnamed_addr constant [46 x i8] c"Error : can't free LZ4F context resource : %s\00", align 1

; Function Attrs: nounwind uwtable
define internal void @LZ4IO_freeCResources(ptr noundef byval(%struct.cRess_t) align 8 %0) #0 {
  %2 = alloca i64, align 8
  %3 = getelementptr inbounds nuw %struct.cRess_t, ptr %0, i32 0, i32 7
  %4 = load ptr, ptr %3, align 8, !tbaa !85
  call void @TPool_free(ptr noundef %4)
  %5 = getelementptr inbounds nuw %struct.cRess_t, ptr %0, i32 0, i32 8
  %6 = load ptr, ptr %5, align 8, !tbaa !86
  call void @TPool_free(ptr noundef %6)
  %7 = getelementptr inbounds nuw %struct.cRess_t, ptr %0, i32 0, i32 0
  %8 = load ptr, ptr %7, align 8, !tbaa !67
  call void @free(ptr noundef %8) #13
  %9 = getelementptr inbounds nuw %struct.cRess_t, ptr %0, i32 0, i32 2
  %10 = load ptr, ptr %9, align 8, !tbaa !73
  call void @free(ptr noundef %10) #13
  %11 = getelementptr inbounds nuw %struct.cRess_t, ptr %0, i32 0, i32 6
  %12 = load ptr, ptr %11, align 8, !tbaa !81
  call void @LZ4F_freeCDict(ptr noundef %12)
  %13 = getelementptr inbounds nuw %struct.cRess_t, ptr %0, i32 0, i32 6
  store ptr null, ptr %13, align 8, !tbaa !81
  call void @llvm.lifetime.start.p0(i64 8, ptr %2) #13
  %14 = getelementptr inbounds nuw %struct.cRess_t, ptr %0, i32 0, i32 4
  %15 = load ptr, ptr %14, align 8, !tbaa !75
  %16 = call i64 @LZ4F_freeCompressionContext(ptr noundef %15)
  store i64 %16, ptr %2, align 8, !tbaa !32
  %17 = load i64, ptr %2, align 8, !tbaa !32
  %18 = call i32 @LZ4F_isError(i64 noundef %17)
  %19 = icmp ne i32 %18, 0
  br i1 %19, label %20, label %60

20:                                               ; preds = %1
  %21 = load i32, ptr @g_displayLevel, align 4, !tbaa !9
  %22 = icmp sge i32 %21, 1
  br i1 %22, label %23, label %32

23:                                               ; preds = %20
  %24 = load ptr, ptr @stderr, align 8, !tbaa !11
  %25 = call i32 (ptr, ptr, ...) @fprintf(ptr noundef %24, ptr noundef @.str, i32 noundef 35) #13
  %26 = load i32, ptr @g_displayLevel, align 4, !tbaa !9
  %27 = icmp sge i32 %26, 4
  br i1 %27, label %28, label %31

28:                                               ; preds = %23
  %29 = load ptr, ptr @stderr, align 8, !tbaa !11
  %30 = call i32 @fflush(ptr noundef %29)
  br label %31

31:                                               ; preds = %28, %23
  br label %32

32:                                               ; preds = %31, %20
  %33 = load i32, ptr @g_displayLevel, align 4, !tbaa !9
  %34 = icmp sge i32 %33, 1
  br i1 %34, label %35, label %46

35:                                               ; preds = %32
  %36 = load ptr, ptr @stderr, align 8, !tbaa !11
  %37 = load i64, ptr %2, align 8, !tbaa !32
  %38 = call ptr @LZ4F_getErrorName(i64 noundef %37)
  %39 = call i32 (ptr, ptr, ...) @fprintf(ptr noundef %36, ptr noundef @.str.82, ptr noundef %38) #13
  %40 = load i32, ptr @g_displayLevel, align 4, !tbaa !9
  %41 = icmp sge i32 %40, 4
  br i1 %41, label %42, label %45

42:                                               ; preds = %35
  %43 = load ptr, ptr @stderr, align 8, !tbaa !11
  %44 = call i32 @fflush(ptr noundef %43)
  br label %45

45:                                               ; preds = %42, %35
  br label %46

46:                                               ; preds = %45, %32
  %47 = load i32, ptr @g_displayLevel, align 4, !tbaa !9
  %48 = icmp sge i32 %47, 1
  br i1 %48, label %49, label %58

49:                                               ; preds = %46
  %50 = load ptr, ptr @stderr, align 8, !tbaa !11
  %51 = call i32 (ptr, ptr, ...) @fprintf(ptr noundef %50, ptr noundef @.str.2) #13
  %52 = load i32, ptr @g_displayLevel, align 4, !tbaa !9
  %53 = icmp sge i32 %52, 4
  br i1 %53, label %54, label %57

54:                                               ; preds = %49
  %55 = load ptr, ptr @stderr, align 8, !tbaa !11
  %56 = call i32 @fflush(ptr noundef %55)
  br label %57

57:                                               ; preds = %54, %49
  br label %58

58:                                               ; preds = %57, %46
  %59 = call i32 @fflush(ptr noundef null)
  call void @exit(i32 noundef 35) #15
  unreachable

60:                                               ; preds = %1
  call void @llvm.lifetime.end.p0(i64 8, ptr %2) #13
  ret void
}