; Function Attrs: nounwind uwtable
define internal fastcc void @LZ4IO_freeCResources(ptr noundef readonly byval(%struct.cRess_t) align 8 captures(none) %0) unnamed_addr #11 {
  %2 = getelementptr inbounds nuw i8, ptr %0, i64 104
  %3 = load ptr, ptr %2, align 8, !tbaa !81
  tail call void @TPool_free(ptr noundef %3) #24
  %4 = getelementptr inbounds nuw i8, ptr %0, i64 112
  %5 = load ptr, ptr %4, align 8, !tbaa !82
  tail call void @TPool_free(ptr noundef %5) #24
  %6 = load ptr, ptr %0, align 8, !tbaa !60
  tail call void @free(ptr noundef %6) #24
  %7 = getelementptr inbounds nuw i8, ptr %0, i64 16
  %8 = load ptr, ptr %7, align 8, !tbaa !66
  tail call void @free(ptr noundef %8) #24
  %9 = getelementptr inbounds nuw i8, ptr %0, i64 96
  %10 = load ptr, ptr %9, align 8, !tbaa !76
  tail call void @LZ4F_freeCDict(ptr noundef %10) #24
  %11 = getelementptr inbounds nuw i8, ptr %0, i64 32
  %12 = load ptr, ptr %11, align 8, !tbaa !68
  %13 = tail call i64 @LZ4F_freeCompressionContext(ptr noundef %12) #24
  %14 = tail call i32 @LZ4F_isError(i64 noundef %13) #24
  %.not = icmp eq i32 %14, 0
  br i1 %.not, label %49, label %15

15:                                               ; preds = %1
  %16 = load i32, ptr @g_displayLevel, align 4, !tbaa !4
  %17 = icmp sgt i32 %16, 0
  br i1 %17, label %18, label %.thread3

18:                                               ; preds = %15
  %19 = load ptr, ptr @stderr, align 8, !tbaa !8
  %20 = tail call i32 (ptr, ptr, ...) @fprintf(ptr noundef %19, ptr noundef nonnull @.str, i32 noundef 35) #26
  %21 = load i32, ptr @g_displayLevel, align 4, !tbaa !4
  %22 = icmp sgt i32 %21, 3
  br i1 %22, label %23, label %26

23:                                               ; preds = %18
  %24 = load ptr, ptr @stderr, align 8, !tbaa !8
  %25 = tail call i32 @fflush(ptr noundef %24)
  %.pr = load i32, ptr @g_displayLevel, align 4, !tbaa !4
  br label %26

26:                                               ; preds = %18, %23
  %27 = phi i32 [ %21, %18 ], [ %.pr, %23 ]
  %28 = icmp sgt i32 %27, 0
  br i1 %28, label %29, label %.thread3

29:                                               ; preds = %26
  %30 = load ptr, ptr @stderr, align 8, !tbaa !8
  %31 = tail call ptr @LZ4F_getErrorName(i64 noundef %13) #24
  %32 = tail call i32 (ptr, ptr, ...) @fprintf(ptr noundef %30, ptr noundef nonnull @.str.82, ptr noundef %31) #26
  %33 = load i32, ptr @g_displayLevel, align 4, !tbaa !4
  %34 = icmp sgt i32 %33, 3
  br i1 %34, label %35, label %thread-pre-split

35:                                               ; preds = %29
  %36 = load ptr, ptr @stderr, align 8, !tbaa !8
  %37 = tail call i32 @fflush(ptr noundef %36)
  %.pr2.pre = load i32, ptr @g_displayLevel, align 4, !tbaa !4
  br label %thread-pre-split

thread-pre-split:                                 ; preds = %35, %29
  %38 = phi i32 [ %33, %29 ], [ %.pr2.pre, %35 ]
  %39 = icmp sgt i32 %38, 0
  br i1 %39, label %40, label %.thread3

40:                                               ; preds = %thread-pre-split
  %41 = load ptr, ptr @stderr, align 8, !tbaa !8
  %42 = tail call i64 @fwrite(ptr nonnull @.str.2, i64 2, i64 1, ptr %41) #27
  %43 = load i32, ptr @g_displayLevel, align 4, !tbaa !4
  %44 = icmp sgt i32 %43, 3
  br i1 %44, label %45, label %.thread3

45:                                               ; preds = %40
  %46 = load ptr, ptr @stderr, align 8, !tbaa !8
  %47 = tail call i32 @fflush(ptr noundef %46)
  br label %.thread3

.thread3:                                         ; preds = %26, %15, %40, %45, %thread-pre-split
  %48 = tail call i32 @fflush(ptr noundef null)
  tail call void @exit(i32 noundef 35) #28
  unreachable

49:                                               ; preds = %1
  ret void
}